; Function Attrs: nounwind uwtable
define noalias nonnull ptr @l_Std_Time_TimeZone_ZoneRules_ofTimeZone(ptr noundef readonly captures(none) %0) local_unnamed_addr #1 {
  %2 = getelementptr inbounds nuw i8, ptr %0, i64 8
  %3 = load ptr, ptr %2, align 8, !tbaa !10
  %4 = getelementptr inbounds nuw i8, ptr %0, i64 16
  %5 = load ptr, ptr %4, align 8, !tbaa !10
  %6 = getelementptr inbounds nuw i8, ptr %0, i64 24
  %7 = load ptr, ptr %6, align 8, !tbaa !10
  %8 = getelementptr inbounds nuw i8, ptr %0, i64 32
  %9 = load i8, ptr %8, align 1, !tbaa !18
  %10 = ptrtoint ptr %5 to i64
  %11 = and i64 %10, 1
  %.not = icmp eq i64 %11, 0
  br i1 %.not, label %12, label %lean_inc.exit24

12:                                               ; preds = %1
  %.val.i = load i32, ptr %5, align 4, !tbaa !4
  %13 = icmp sgt i32 %.val.i, 0
  br i1 %13, label %14, label %16, !prof !9

14:                                               ; preds = %12
  %15 = add nuw i32 %.val.i, 1
  store i32 %15, ptr %5, align 4, !tbaa !4
  br label %lean_inc.exit24

16:                                               ; preds = %12
  %.not.i = icmp eq i32 %.val.i, 0
  br i1 %.not.i, label %lean_inc.exit24, label %17

17:                                               ; preds = %16
  tail call void @lean_inc_ref_cold(ptr noundef nonnull %5) #6
  br label %lean_inc.exit24

lean_inc.exit24:                                  ; preds = %17, %16, %14, %1
  %18 = ptrtoint ptr %7 to i64
  %19 = and i64 %18, 1
  %.not32 = icmp eq i64 %19, 0
  br i1 %.not32, label %20, label %lean_inc.exit23

20:                                               ; preds = %lean_inc.exit24
  %.val.i25 = load i32, ptr %7, align 4, !tbaa !4
  %21 = icmp sgt i32 %.val.i25, 0
  br i1 %21, label %22, label %24, !prof !9

22:                                               ; preds = %20
  %23 = add nuw i32 %.val.i25, 1
  store i32 %23, ptr %7, align 4, !tbaa !4
  br label %lean_inc.exit23

24:                                               ; preds = %20
  %.not.i26 = icmp eq i32 %.val.i25, 0
  br i1 %.not.i26, label %lean_inc.exit23, label %25

25:                                               ; preds = %24
  tail call void @lean_inc_ref_cold(ptr noundef nonnull %7) #6
  br label %lean_inc.exit23

lean_inc.exit23:                                  ; preds = %25, %24, %22, %lean_inc.exit24
  %26 = ptrtoint ptr %3 to i64
  %27 = and i64 %26, 1
  %.not33 = icmp eq i64 %27, 0
  br i1 %.not33, label %28, label %lean_inc.exit

28:                                               ; preds = %lean_inc.exit23
  %.val.i28 = load i32, ptr %3, align 4, !tbaa !4
  %29 = icmp sgt i32 %.val.i28, 0
  br i1 %29, label %30, label %32, !prof !9

30:                                               ; preds = %28
  %31 = add nuw i32 %.val.i28, 1
  store i32 %31, ptr %3, align 4, !tbaa !4
  br label %lean_inc.exit

32:                                               ; preds = %28
  %.not.i29 = icmp eq i32 %.val.i28, 0
  br i1 %.not.i29, label %lean_inc.exit, label %33

33:                                               ; preds = %32
  tail call void @lean_inc_ref_cold(ptr noundef nonnull %3) #6
  br label %lean_inc.exit

lean_inc.exit:                                    ; preds = %33, %32, %30, %lean_inc.exit23
  tail call void @lean_inc_heartbeat() #6
  %34 = tail call noalias ptr @mi_malloc_small(i64 noundef 40) #6
  %35 = icmp eq ptr %34, null
  br i1 %35, label %36, label %lean_alloc_ctor.exit

36:                                               ; preds = %lean_inc.exit
  tail call void @lean_internal_panic_out_of_memory() #7
  unreachable

lean_alloc_ctor.exit:                             ; preds = %lean_inc.exit
  %37 = getelementptr inbounds nuw i8, ptr %34, i64 4
  %38 = getelementptr inbounds nuw i8, ptr %34, i64 32
  store i64 65536, ptr %38, align 8, !tbaa !16
  store i32 1, ptr %34, align 4, !tbaa !4
  store i32 196648, ptr %37, align 4
  %39 = getelementptr inbounds nuw i8, ptr %34, i64 8
  store ptr %3, ptr %39, align 8, !tbaa !10
  %40 = getelementptr inbounds nuw i8, ptr %34, i64 16
  store ptr %7, ptr %40, align 8, !tbaa !10
  %41 = getelementptr inbounds nuw i8, ptr %34, i64 24
  store ptr %5, ptr %41, align 8, !tbaa !10
  store i8 %9, ptr %38, align 1, !tbaa !18
  %42 = load ptr, ptr @l_Std_Time_TimeZone_ZoneRules_fixedOffsetZone___closed__1, align 8, !tbaa !10
  tail call void @lean_inc_heartbeat() #6
  %43 = tail call noalias ptr @mi_malloc_small(i64 noundef 24) #6
  %44 = icmp eq ptr %43, null
  br i1 %44, label %45, label %lean_alloc_ctor.exit31

45:                                               ; preds = %lean_alloc_ctor.exit
  tail call void @lean_internal_panic_out_of_memory() #7
  unreachable

lean_alloc_ctor.exit31:                           ; preds = %lean_alloc_ctor.exit
  %46 = getelementptr inbounds nuw i8, ptr %43, i64 4
  store i32 1, ptr %43, align 4, !tbaa !4
  store i32 131096, ptr %46, align 4
  %47 = getelementptr inbounds nuw i8, ptr %43, i64 8
  store ptr %34, ptr %47, align 8, !tbaa !10
  %48 = getelementptr inbounds nuw i8, ptr %43, i64 16
  store ptr %42, ptr %48, align 8, !tbaa !10
  ret ptr %43
}